target datalayout = "e-m:e-p270:32:32-p271:32:32-p272:64:64-i64:64-i128:128-f80:128-n8:16:32:64-S128"
target triple = "x86_64-pc-linux-gnu"

%struct.RepeatInfo = type { i8, i32, i32, i32, i32, i32, i32, [2 x i32], i32, i32, i32, i32, i32 }
%struct.RepeatTrailerControl = type { i64, i64 }

; Function Attrs: nounwind uwtable
define hidden i32 @repeatHasMatchTrailer(ptr noundef %0, ptr noundef %1, i64 noundef %2) #0 {
  %4 = alloca i32, align 4
  %5 = alloca ptr, align 8
  %6 = alloca ptr, align 8
  %7 = alloca i64, align 8
  %8 = alloca ptr, align 8
  %9 = alloca i32, align 4
  %10 = alloca i32, align 4
  %11 = alloca i32, align 4
  store ptr %0, ptr %5, align 8
  store ptr %1, ptr %6, align 8
  store i64 %2, ptr %7, align 8
  call void @llvm.lifetime.start.p0(i64 8, ptr %8) #7
  %12 = load ptr, ptr %6, align 8
  store ptr %12, ptr %8, align 8
  call void @llvm.lifetime.start.p0(i64 4, ptr %9) #7
  %13 = load ptr, ptr %5, align 8
  %14 = getelementptr inbounds nuw %struct.RepeatInfo, ptr %13, i32 0, i32 2
  %15 = load i32, ptr %14, align 4
  %16 = load ptr, ptr %5, align 8
  %17 = getelementptr inbounds nuw %struct.RepeatInfo, ptr %16, i32 0, i32 1
  %18 = load i32, ptr %17, align 4
  %19 = sub i32 %15, %18
  store i32 %19, ptr %9, align 4
  br label %20

20:                                               ; preds = %3
  br label %21

21:                                               ; preds = %20
  br label %22

22:                                               ; preds = %21
  %23 = load i64, ptr %7, align 8
  %24 = load ptr, ptr %8, align 8
  %25 = getelementptr inbounds nuw %struct.RepeatTrailerControl, ptr %24, i32 0, i32 0
  %26 = load i64, ptr %25, align 8
  %27 = load i32, ptr %9, align 4
  %28 = zext i32 %27 to i64
  %29 = add i64 %26, %28
  %30 = icmp ugt i64 %23, %29
  br i1 %30, label %31, label %35

31:                                               ; preds = %22
  br label %32

32:                                               ; preds = %31
  br label %33

33:                                               ; preds = %32
  br label %34

34:                                               ; preds = %33
  store i32 2, ptr %4, align 4
  store i32 1, ptr %10, align 4
  br label %87

35:                                               ; preds = %22
  %36 = load i64, ptr %7, align 8
  %37 = load ptr, ptr %8, align 8
  %38 = getelementptr inbounds nuw %struct.RepeatTrailerControl, ptr %37, i32 0, i32 0
  %39 = load i64, ptr %38, align 8
  %40 = icmp uge i64 %36, %39
  br i1 %40, label %41, label %45

41:                                               ; preds = %35
  br label %42

42:                                               ; preds = %41
  br label %43

43:                                               ; preds = %42
  br label %44

44:                                               ; preds = %43
  store i32 1, ptr %4, align 4
  store i32 1, ptr %10, align 4
  br label %87

45:                                               ; preds = %35
  %46 = load i64, ptr %7, align 8
  %47 = load ptr, ptr %8, align 8
  %48 = getelementptr inbounds nuw %struct.RepeatTrailerControl, ptr %47, i32 0, i32 0
  %49 = load i64, ptr %48, align 8
  %50 = load ptr, ptr %5, align 8
  %51 = getelementptr inbounds nuw %struct.RepeatInfo, ptr %50, i32 0, i32 1
  %52 = load i32, ptr %51, align 4
  %53 = zext i32 %52 to i64
  %54 = sub i64 %49, %53
  %55 = icmp uge i64 %46, %54
  br i1 %55, label %56, label %83

56:                                               ; preds = %45
  call void @llvm.lifetime.start.p0(i64 4, ptr %11) #7
  %57 = load ptr, ptr %8, align 8
  %58 = getelementptr inbounds nuw %struct.RepeatTrailerControl, ptr %57, i32 0, i32 0
  %59 = load i64, ptr %58, align 8
  %60 = load i64, ptr %7, align 8
  %61 = sub i64 %59, %60
  %62 = sub i64 %61, 1
  %63 = trunc i64 %62 to i32
  store i32 %63, ptr %11, align 4
  br label %64

64:                                               ; preds = %56
  br label %65

65:                                               ; preds = %64
  br label %66

66:                                               ; preds = %65
  %67 = load ptr, ptr %8, align 8
  %68 = getelementptr inbounds nuw %struct.RepeatTrailerControl, ptr %67, i32 0, i32 1
  %69 = load i64, ptr %68, align 8
  %70 = load i32, ptr %11, align 4
  %71 = zext i32 %70 to i64
  %72 = shl i64 1, %71
  %73 = and i64 %69, %72
  %74 = icmp ne i64 %73, 0
  br i1 %74, label %75, label %79

75:                                               ; preds = %66
  br label %76

76:                                               ; preds = %75
  br label %77

77:                                               ; preds = %76
  br label %78

78:                                               ; preds = %77
  store i32 1, ptr %4, align 4
  store i32 1, ptr %10, align 4
  br label %80

79:                                               ; preds = %66
  store i32 0, ptr %10, align 4
  br label %80

80:                                               ; preds = %79, %78
  call void @llvm.lifetime.end.p0(i64 4, ptr %11) #7
  %81 = load i32, ptr %10, align 4
  switch i32 %81, label %87 [
    i32 0, label %82
  ]

82:                                               ; preds = %80
  br label %83

83:                                               ; preds = %82, %45
  br label %84

84:                                               ; preds = %83
  br label %85

85:                                               ; preds = %84
  br label %86

86:                                               ; preds = %85
  store i32 0, ptr %4, align 4
  store i32 1, ptr %10, align 4
  br label %87

87:                                               ; preds = %86, %80, %44, %34
  call void @llvm.lifetime.end.p0(i64 4, ptr %9) #7
  call void @llvm.lifetime.end.p0(i64 8, ptr %8) #7
  %88 = load i32, ptr %4, align 4
  ret i32 %88
}