; Function Attrs: mustprogress nofree norecurse nosync nounwind willreturn memory(argmem: read) uwtable
define hidden range(i32 0, 3) i32 @repeatHasMatchTrailer(ptr noundef readonly captures(none) %0, ptr noundef readonly captures(none) %1, i64 noundef %2) local_unnamed_addr #0 {
  %4 = getelementptr inbounds nuw i8, ptr %0, i64 8
  %5 = load i32, ptr %4, align 4
  %6 = getelementptr inbounds nuw i8, ptr %0, i64 4
  %7 = load i32, ptr %6, align 4
  %8 = sub i32 %5, %7
  %9 = load i64, ptr %1, align 8
  %10 = zext i32 %8 to i64
  %11 = add i64 %9, %10
  %12 = icmp ugt i64 %2, %11
  br i1 %12, label %26, label %13

13:                                               ; preds = %3
  %.not = icmp ult i64 %2, %9
  br i1 %.not, label %14, label %26

14:                                               ; preds = %13
  %15 = zext i32 %7 to i64
  %16 = sub i64 %9, %15
  %.not19 = icmp ult i64 %2, %16
  br i1 %.not19, label %25, label %17

17:                                               ; preds = %14
  %18 = xor i64 %2, -1
  %19 = add i64 %9, %18
  %20 = getelementptr inbounds nuw i8, ptr %1, i64 8
  %21 = load i64, ptr %20, align 8
  %22 = and i64 %19, 4294967295
  %23 = shl nuw i64 1, %22
  %24 = and i64 %21, %23
  %.not20 = icmp eq i64 %24, 0
  br i1 %.not20, label %25, label %26

25:                                               ; preds = %14, %17
  br label %26

26:                                               ; preds = %13, %3, %17, %25
  %.0 = phi i32 [ 0, %25 ], [ 1, %17 ], [ 2, %3 ], [ 1, %13 ]
  ret i32 %.0
}